target datalayout = "e-m:e-p270:32:32-p271:32:32-p272:64:64-i64:64-i128:128-f80:128-n8:16:32:64-S128"
target triple = "x86_64-pc-linux-gnu"

%struct.ForEachState = type { ptr, i32 }
%union.ListCell = type { ptr }
%struct.QualCost = type { double, double }
%struct.Expr = type { i32 }
%struct.List = type { i32, i32, i32, ptr, [0 x %union.ListCell] }
%struct.EquivalenceClass = type { i32, ptr, i32, ptr, ptr, ptr, ptr, i8, i8, i8, i32, i32, i32, ptr }
%struct.EquivalenceMember = type { i32, ptr, ptr, i8, i8, i32, ptr, ptr }
%struct.Node = type { i32 }
%struct.RelOptInfo = type { i32, i32, ptr, double, i8, i8, i8, ptr, ptr, ptr, ptr, ptr, ptr, ptr, ptr, ptr, ptr, i32, i32, i32, i16, i16, ptr, ptr, ptr, ptr, ptr, ptr, ptr, ptr, i32, double, double, ptr, ptr, ptr, i32, i32, i32, i32, i8, ptr, ptr, ptr, ptr, ptr, %struct.QualCost, i32, ptr, i8, i8, ptr, ptr, ptr, ptr, i32, ptr, i8, ptr, ptr, ptr, ptr, ptr, ptr }
%struct.RelabelType = type { %struct.Expr, ptr, i32, i32, i32, i32, i32 }
%struct.PathTarget = type { i32, ptr, ptr, %struct.QualCost, i32, i32 }

; Function Attrs: nounwind uwtable
define dso_local ptr @find_ec_member_matching_expr(ptr noundef %0, ptr noundef %1, ptr noundef %2) #0 {
  %4 = alloca ptr, align 8
  %5 = alloca ptr, align 8
  %6 = alloca ptr, align 8
  %7 = alloca ptr, align 8
  %8 = alloca ptr, align 8
  %9 = alloca %struct.ForEachState, align 8
  %10 = alloca i32, align 4
  %11 = alloca ptr, align 8
  %12 = alloca ptr, align 8
  store ptr %0, ptr %5, align 8
  store ptr %1, ptr %6, align 8
  store ptr %2, ptr %7, align 8
  call void @llvm.lifetime.start.p0(i64 8, ptr %8) #6
  br label %13

13:                                               ; preds = %23, %3
  %14 = load ptr, ptr %6, align 8
  %15 = icmp ne ptr %14, null
  br i1 %15, label %16, label %21

16:                                               ; preds = %13
  %17 = load ptr, ptr %6, align 8
  %18 = getelementptr inbounds nuw %struct.Node, ptr %17, i32 0, i32 0
  %19 = load i32, ptr %18, align 4
  %20 = icmp eq i32 %19, 27
  br label %21

21:                                               ; preds = %16, %13
  %22 = phi i1 [ false, %13 ], [ %20, %16 ]
  br i1 %22, label %23, label %27

23:                                               ; preds = %21
  %24 = load ptr, ptr %6, align 8
  %25 = getelementptr inbounds nuw %struct.RelabelType, ptr %24, i32 0, i32 1
  %26 = load ptr, ptr %25, align 8
  store ptr %26, ptr %6, align 8
  br label %13, !llvm.loop !12

27:                                               ; preds = %21
  call void @llvm.lifetime.start.p0(i64 16, ptr %9) #6
  %28 = getelementptr inbounds nuw %struct.ForEachState, ptr %9, i32 0, i32 0
  %29 = load ptr, ptr %5, align 8
  %30 = getelementptr inbounds nuw %struct.EquivalenceClass, ptr %29, i32 0, i32 3
  %31 = load ptr, ptr %30, align 8
  store ptr %31, ptr %28, align 8
  %32 = getelementptr inbounds nuw %struct.ForEachState, ptr %9, i32 0, i32 1
  store i32 0, ptr %32, align 8
  %33 = getelementptr i8, ptr %9, i64 12
  call void @llvm.memset.p0.i64(ptr align 4 %33, i8 0, i64 4, i1 false)
  br label %34

34:                                               ; preds = %108, %27
  %35 = getelementptr inbounds nuw %struct.ForEachState, ptr %9, i32 0, i32 0
  %36 = load ptr, ptr %35, align 8
  %37 = icmp ne ptr %36, null
  br i1 %37, label %38, label %55

38:                                               ; preds = %34
  %39 = getelementptr inbounds nuw %struct.ForEachState, ptr %9, i32 0, i32 1
  %40 = load i32, ptr %39, align 8
  %41 = getelementptr inbounds nuw %struct.ForEachState, ptr %9, i32 0, i32 0
  %42 = load ptr, ptr %41, align 8
  %43 = getelementptr inbounds nuw %struct.List, ptr %42, i32 0, i32 1
  %44 = load i32, ptr %43, align 4
  %45 = icmp slt i32 %40, %44
  br i1 %45, label %46, label %55

46:                                               ; preds = %38
  %47 = getelementptr inbounds nuw %struct.ForEachState, ptr %9, i32 0, i32 0
  %48 = load ptr, ptr %47, align 8
  %49 = getelementptr inbounds nuw %struct.List, ptr %48, i32 0, i32 3
  %50 = load ptr, ptr %49, align 8
  %51 = getelementptr inbounds nuw %struct.ForEachState, ptr %9, i32 0, i32 1
  %52 = load i32, ptr %51, align 8
  %53 = sext i32 %52 to i64
  %54 = getelementptr inbounds %union.ListCell, ptr %50, i64 %53
  store ptr %54, ptr %8, align 8
  br label %56

55:                                               ; preds = %38, %34
  store ptr null, ptr %8, align 8
  br label %56

56:                                               ; preds = %55, %46
  %57 = phi i32 [ 1, %46 ], [ 0, %55 ]
  %58 = icmp ne i32 %57, 0
  br i1 %58, label %60, label %59

59:                                               ; preds = %56
  store i32 4, ptr %10, align 4
  br label %112

60:                                               ; preds = %56
  call void @llvm.lifetime.start.p0(i64 8, ptr %11) #6
  %61 = load ptr, ptr %8, align 8
  %62 = load ptr, ptr %61, align 8
  store ptr %62, ptr %11, align 8
  call void @llvm.lifetime.start.p0(i64 8, ptr %12) #6
  %63 = load ptr, ptr %11, align 8
  %64 = getelementptr inbounds nuw %struct.EquivalenceMember, ptr %63, i32 0, i32 3
  %65 = load i8, ptr %64, align 8, !range !4, !noundef !5
  %66 = trunc i8 %65 to i1
  br i1 %66, label %67, label %68

67:                                               ; preds = %60
  store i32 6, ptr %10, align 4
  br label %105

68:                                               ; preds = %60
  %69 = load ptr, ptr %11, align 8
  %70 = getelementptr inbounds nuw %struct.EquivalenceMember, ptr %69, i32 0, i32 4
  %71 = load i8, ptr %70, align 1, !range !4, !noundef !5
  %72 = trunc i8 %71 to i1
  br i1 %72, label %73, label %80

73:                                               ; preds = %68
  %74 = load ptr, ptr %11, align 8
  %75 = getelementptr inbounds nuw %struct.EquivalenceMember, ptr %74, i32 0, i32 2
  %76 = load ptr, ptr %75, align 8
  %77 = load ptr, ptr %7, align 8
  %78 = call zeroext i1 @bms_is_subset(ptr noundef %76, ptr noundef %77)
  br i1 %78, label %80, label %79

79:                                               ; preds = %73
  store i32 6, ptr %10, align 4
  br label %105

80:                                               ; preds = %73, %68
  %81 = load ptr, ptr %11, align 8
  %82 = getelementptr inbounds nuw %struct.EquivalenceMember, ptr %81, i32 0, i32 1
  %83 = load ptr, ptr %82, align 8
  store ptr %83, ptr %12, align 8
  br label %84

84:                                               ; preds = %94, %80
  %85 = load ptr, ptr %12, align 8
  %86 = icmp ne ptr %85, null
  br i1 %86, label %87, label %92

87:                                               ; preds = %84
  %88 = load ptr, ptr %12, align 8
  %89 = getelementptr inbounds nuw %struct.Node, ptr %88, i32 0, i32 0
  %90 = load i32, ptr %89, align 4
  %91 = icmp eq i32 %90, 27
  br label %92

92:                                               ; preds = %87, %84
  %93 = phi i1 [ false, %84 ], [ %91, %87 ]
  br i1 %93, label %94, label %98

94:                                               ; preds = %92
  %95 = load ptr, ptr %12, align 8
  %96 = getelementptr inbounds nuw %struct.RelabelType, ptr %95, i32 0, i32 1
  %97 = load ptr, ptr %96, align 8
  store ptr %97, ptr %12, align 8
  br label %84, !llvm.loop !13

98:                                               ; preds = %92
  %99 = load ptr, ptr %12, align 8
  %100 = load ptr, ptr %6, align 8
  %101 = call zeroext i1 @equal(ptr noundef %99, ptr noundef %100)
  br i1 %101, label %102, label %104

102:                                              ; preds = %98
  %103 = load ptr, ptr %11, align 8
  store ptr %103, ptr %4, align 8
  store i32 1, ptr %10, align 4
  br label %105

104:                                              ; preds = %98
  store i32 0, ptr %10, align 4
  br label %105

105:                                              ; preds = %104, %102, %79, %67
  call void @llvm.lifetime.end.p0(i64 8, ptr %12) #6
  call void @llvm.lifetime.end.p0(i64 8, ptr %11) #6
  %106 = load i32, ptr %10, align 4
  switch i32 %106, label %112 [
    i32 0, label %107
    i32 6, label %108
  ]

107:                                              ; preds = %105
  br label %108

108:                                              ; preds = %107, %105
  %109 = getelementptr inbounds nuw %struct.ForEachState, ptr %9, i32 0, i32 1
  %110 = load i32, ptr %109, align 8
  %111 = add i32 %110, 1
  store i32 %111, ptr %109, align 8
  br label %34, !llvm.loop !14

112:                                              ; preds = %105, %59
  call void @llvm.lifetime.end.p0(i64 16, ptr %9) #6
  %113 = load i32, ptr %10, align 4
  switch i32 %113, label %115 [
    i32 4, label %114
  ]

114:                                              ; preds = %112
  store ptr null, ptr %4, align 8
  store i32 1, ptr %10, align 4
  br label %115

115:                                              ; preds = %114, %112
  call void @llvm.lifetime.end.p0(i64 8, ptr %8) #6
  %116 = load ptr, ptr %4, align 8
  ret ptr %116
}

; Function Attrs: nounwind uwtable
define dso_local zeroext i1 @relation_can_be_sorted_early(ptr noundef %0, ptr noundef %1, ptr noundef %2, i1 noundef zeroext %3) #0 {
  %5 = alloca i1, align 1
  %6 = alloca ptr, align 8
  %7 = alloca ptr, align 8
  %8 = alloca ptr, align 8
  %9 = alloca i8, align 1
  %10 = alloca ptr, align 8
  %11 = alloca ptr, align 8
  %12 = alloca ptr, align 8
  %13 = alloca i32, align 4
  %14 = alloca %struct.ForEachState, align 8
  %15 = alloca ptr, align 8
  store ptr %0, ptr %6, align 8
  store ptr %1, ptr %7, align 8
  store ptr %2, ptr %8, align 8
  %16 = zext i1 %3 to i8
  store i8 %16, ptr %9, align 1
  call void @llvm.lifetime.start.p0(i64 8, ptr %10) #6
  %17 = load ptr, ptr %7, align 8
  %18 = getelementptr inbounds nuw %struct.RelOptInfo, ptr %17, i32 0, i32 7
  %19 = load ptr, ptr %18, align 8
  store ptr %19, ptr %10, align 8
  call void @llvm.lifetime.start.p0(i64 8, ptr %11) #6
  call void @llvm.lifetime.start.p0(i64 8, ptr %12) #6
  %20 = load ptr, ptr %8, align 8
  %21 = getelementptr inbounds nuw %struct.EquivalenceClass, ptr %20, i32 0, i32 8
  %22 = load i8, ptr %21, align 1, !range !4, !noundef !5
  %23 = trunc i8 %22 to i1
  br i1 %23, label %24, label %25

24:                                               ; preds = %4
  store i1 false, ptr %5, align 1
  store i32 1, ptr %13, align 4
  br label %117

25:                                               ; preds = %4
  call void @llvm.lifetime.start.p0(i64 16, ptr %14) #6
  %26 = getelementptr inbounds nuw %struct.ForEachState, ptr %14, i32 0, i32 0
  %27 = load ptr, ptr %10, align 8
  %28 = getelementptr inbounds nuw %struct.PathTarget, ptr %27, i32 0, i32 1
  %29 = load ptr, ptr %28, align 8
  store ptr %29, ptr %26, align 8
  %30 = getelementptr inbounds nuw %struct.ForEachState, ptr %14, i32 0, i32 1
  store i32 0, ptr %30, align 8
  %31 = getelementptr i8, ptr %14, i64 12
  call void @llvm.memset.p0.i64(ptr align 4 %31, i8 0, i64 4, i1 false)
  br label %32

32:                                               ; preds = %89, %25
  %33 = getelementptr inbounds nuw %struct.ForEachState, ptr %14, i32 0, i32 0
  %34 = load ptr, ptr %33, align 8
  %35 = icmp ne ptr %34, null
  br i1 %35, label %36, label %53

36:                                               ; preds = %32
  %37 = getelementptr inbounds nuw %struct.ForEachState, ptr %14, i32 0, i32 1
  %38 = load i32, ptr %37, align 8
  %39 = getelementptr inbounds nuw %struct.ForEachState, ptr %14, i32 0, i32 0
  %40 = load ptr, ptr %39, align 8
  %41 = getelementptr inbounds nuw %struct.List, ptr %40, i32 0, i32 1
  %42 = load i32, ptr %41, align 4
  %43 = icmp slt i32 %38, %42
  br i1 %43, label %44, label %53

44:                                               ; preds = %36
  %45 = getelementptr inbounds nuw %struct.ForEachState, ptr %14, i32 0, i32 0
  %46 = load ptr, ptr %45, align 8
  %47 = getelementptr inbounds nuw %struct.List, ptr %46, i32 0, i32 3
  %48 = load ptr, ptr %47, align 8
  %49 = getelementptr inbounds nuw %struct.ForEachState, ptr %14, i32 0, i32 1
  %50 = load i32, ptr %49, align 8
  %51 = sext i32 %50 to i64
  %52 = getelementptr inbounds %union.ListCell, ptr %48, i64 %51
  store ptr %52, ptr %12, align 8
  br label %54

53:                                               ; preds = %36, %32
  store ptr null, ptr %12, align 8
  br label %54

54:                                               ; preds = %53, %44
  %55 = phi i32 [ 1, %44 ], [ 0, %53 ]
  %56 = icmp ne i32 %55, 0
  br i1 %56, label %58, label %57

57:                                               ; preds = %54
  store i32 2, ptr %13, align 4
  br label %93

58:                                               ; preds = %54
  call void @llvm.lifetime.start.p0(i64 8, ptr %15) #6
  %59 = load ptr, ptr %12, align 8
  %60 = load ptr, ptr %59, align 8
  store ptr %60, ptr %15, align 8
  %61 = load ptr, ptr %8, align 8
  %62 = load ptr, ptr %15, align 8
  %63 = load ptr, ptr %7, align 8
  %64 = getelementptr inbounds nuw %struct.RelOptInfo, ptr %63, i32 0, i32 2
  %65 = load ptr, ptr %64, align 8
  %66 = call ptr @find_ec_member_matching_expr(ptr noundef %61, ptr noundef %62, ptr noundef %65)
  store ptr %66, ptr %11, align 8
  %67 = load ptr, ptr %11, align 8
  %68 = icmp ne ptr %67, null
  br i1 %68, label %70, label %69

69:                                               ; preds = %58
  store i32 4, ptr %13, align 4
  br label %87

70:                                               ; preds = %58
  %71 = load ptr, ptr %11, align 8
  %72 = getelementptr inbounds nuw %struct.EquivalenceMember, ptr %71, i32 0, i32 1
  %73 = load ptr, ptr %72, align 8
  %74 = call zeroext i1 @expression_returns_set(ptr noundef %73)
  br i1 %74, label %75, label %76

75:                                               ; preds = %70
  store i32 4, ptr %13, align 4
  br label %87

76:                                               ; preds = %70
  %77 = load i8, ptr %9, align 1, !range !4, !noundef !5
  %78 = trunc i8 %77 to i1
  br i1 %78, label %79, label %86

79:                                               ; preds = %76
  %80 = load ptr, ptr %6, align 8
  %81 = load ptr, ptr %11, align 8
  %82 = getelementptr inbounds nuw %struct.EquivalenceMember, ptr %81, i32 0, i32 1
  %83 = load ptr, ptr %82, align 8
  %84 = call zeroext i1 @is_parallel_safe(ptr noundef %80, ptr noundef %83)
  br i1 %84, label %86, label %85

85:                                               ; preds = %79
  store i32 4, ptr %13, align 4
  br label %87

86:                                               ; preds = %79, %76
  store i1 true, ptr %5, align 1
  store i32 1, ptr %13, align 4
  br label %87

87:                                               ; preds = %86, %85, %75, %69
  call void @llvm.lifetime.end.p0(i64 8, ptr %15) #6
  %88 = load i32, ptr %13, align 4
  switch i32 %88, label %93 [
    i32 4, label %89
  ]

89:                                               ; preds = %87
  %90 = getelementptr inbounds nuw %struct.ForEachState, ptr %14, i32 0, i32 1
  %91 = load i32, ptr %90, align 8
  %92 = add i32 %91, 1
  store i32 %92, ptr %90, align 8
  br label %32, !llvm.loop !17

93:                                               ; preds = %87, %57
  call void @llvm.lifetime.end.p0(i64 16, ptr %14) #6
  %94 = load i32, ptr %13, align 4
  switch i32 %94, label %117 [
    i32 2, label %95
  ]

95:                                               ; preds = %93
  %96 = load ptr, ptr %6, align 8
  %97 = load ptr, ptr %8, align 8
  %98 = load ptr, ptr %10, align 8
  %99 = getelementptr inbounds nuw %struct.PathTarget, ptr %98, i32 0, i32 1
  %100 = load ptr, ptr %99, align 8
  %101 = load ptr, ptr %7, align 8
  %102 = getelementptr inbounds nuw %struct.RelOptInfo, ptr %101, i32 0, i32 2
  %103 = load ptr, ptr %102, align 8
  %104 = load i8, ptr %9, align 1, !range !4, !noundef !5
  %105 = trunc i8 %104 to i1
  %106 = call ptr @find_computable_ec_member(ptr noundef %96, ptr noundef %97, ptr noundef %100, ptr noundef %103, i1 noundef zeroext %105)
  store ptr %106, ptr %11, align 8
  %107 = load ptr, ptr %11, align 8
  %108 = icmp ne ptr %107, null
  br i1 %108, label %110, label %109

109:                                              ; preds = %95
  store i1 false, ptr %5, align 1
  store i32 1, ptr %13, align 4
  br label %117

110:                                              ; preds = %95
  %111 = load ptr, ptr %11, align 8
  %112 = getelementptr inbounds nuw %struct.EquivalenceMember, ptr %111, i32 0, i32 1
  %113 = load ptr, ptr %112, align 8
  %114 = call zeroext i1 @expression_returns_set(ptr noundef %113)
  br i1 %114, label %115, label %116

115:                                              ; preds = %110
  store i1 false, ptr %5, align 1
  store i32 1, ptr %13, align 4
  br label %117

116:                                              ; preds = %110
  store i1 true, ptr %5, align 1
  store i32 1, ptr %13, align 4
  br label %117

117:                                              ; preds = %116, %115, %109, %93, %24
  call void @llvm.lifetime.end.p0(i64 8, ptr %12) #6
  call void @llvm.lifetime.end.p0(i64 8, ptr %11) #6
  call void @llvm.lifetime.end.p0(i64 8, ptr %10) #6
  %118 = load i1, ptr %5, align 1
  ret i1 %118
}