; Function Attrs: nounwind uwtable
define dso_local zeroext i1 @relation_can_be_sorted_early(ptr noundef %0, ptr noundef readonly captures(none) %1, ptr noundef readonly captures(none) %2, i1 noundef zeroext %3) local_unnamed_addr #0 {
  %5 = getelementptr inbounds nuw i8, ptr %2, i64 57
  %6 = load i8, ptr %5, align 1, !range !4, !noundef !5
  %7 = trunc nuw i8 %6 to i1
  br i1 %7, label %.critedge, label %8

8:                                                ; preds = %4
  %9 = getelementptr inbounds nuw i8, ptr %1, i64 32
  %10 = load ptr, ptr %9, align 8
  %11 = getelementptr inbounds nuw i8, ptr %10, i64 8
  %12 = load ptr, ptr %11, align 8
  %.not = icmp eq ptr %12, null
  br i1 %.not, label %.critedge36, label %.lr.ph

.lr.ph:                                           ; preds = %8
  %13 = getelementptr inbounds nuw i8, ptr %12, i64 4
  %14 = getelementptr inbounds nuw i8, ptr %12, i64 16
  %15 = getelementptr inbounds nuw i8, ptr %1, i64 8
  %16 = getelementptr inbounds nuw i8, ptr %2, i64 24
  %17 = load i32, ptr %13, align 4
  %18 = icmp sgt i32 %17, 0
  br i1 %18, label %.lr.ph48, label %.critedge36.loopexit

.lr.ph48:                                         ; preds = %.lr.ph, %find_ec_member_matching_expr.exit.thread
  %indvars.iv47 = phi i64 [ %indvars.iv.next, %find_ec_member_matching_expr.exit.thread ], [ 0, %.lr.ph ]
  %19 = load ptr, ptr %14, align 8
  %20 = getelementptr inbounds nuw %union.ListCell, ptr %19, i64 %indvars.iv47
  %21 = load ptr, ptr %20, align 8
  %22 = load ptr, ptr %15, align 8
  %.not44.i = icmp eq ptr %21, null
  br i1 %.not44.i, label %.critedge.i, label %.lr.ph.i

.lr.ph.i:                                         ; preds = %.lr.ph48, %25
  %.02745.i = phi ptr [ %27, %25 ], [ %21, %.lr.ph48 ]
  %23 = load i32, ptr %.02745.i, align 4
  %24 = icmp eq i32 %23, 27
  br i1 %24, label %25, label %.critedge.i

25:                                               ; preds = %.lr.ph.i
  %26 = getelementptr inbounds nuw i8, ptr %.02745.i, i64 8
  %27 = load ptr, ptr %26, align 8
  %.not.i = icmp eq ptr %27, null
  br i1 %.not.i, label %.critedge.i, label %.lr.ph.i, !llvm.loop !8

.critedge.i:                                      ; preds = %25, %.lr.ph.i, %.lr.ph48
  %.027.lcssa.i = phi ptr [ null, %.lr.ph48 ], [ %.02745.i, %.lr.ph.i ], [ null, %25 ]
  %28 = load ptr, ptr %16, align 8
  %29 = getelementptr inbounds nuw i8, ptr %28, i64 4
  %.not30.i = icmp eq ptr %28, null
  br i1 %.not30.i, label %find_ec_member_matching_expr.exit.thread, label %.lr.ph49.i

.lr.ph49.i:                                       ; preds = %.critedge.i
  %30 = getelementptr inbounds nuw i8, ptr %28, i64 16
  %31 = load i32, ptr %29, align 4
  %32 = icmp sgt i32 %31, 0
  br i1 %32, label %.lr.ph57.i, label %find_ec_member_matching_expr.exit.thread

.lr.ph57.i:                                       ; preds = %.lr.ph49.i, %52
  %indvars.iv.i = phi i64 [ %indvars.iv.next.i, %52 ], [ 0, %.lr.ph49.i ]
  %33 = load ptr, ptr %30, align 8
  %34 = getelementptr inbounds nuw %union.ListCell, ptr %33, i64 %indvars.iv.i
  %35 = load ptr, ptr %34, align 8
  %36 = getelementptr inbounds nuw i8, ptr %35, i64 24
  %37 = load i8, ptr %36, align 8, !range !4, !noundef !5
  %38 = trunc nuw i8 %37 to i1
  br i1 %38, label %52, label %39

39:                                               ; preds = %.lr.ph57.i
  %40 = getelementptr inbounds nuw i8, ptr %35, i64 25
  %41 = load i8, ptr %40, align 1, !range !4, !noundef !5
  %42 = trunc nuw i8 %41 to i1
  br i1 %42, label %43, label %.preheader

43:                                               ; preds = %39
  %44 = getelementptr inbounds nuw i8, ptr %35, i64 16
  %45 = load ptr, ptr %44, align 8
  %46 = tail call zeroext i1 @bms_is_subset(ptr noundef %45, ptr noundef %22) #8
  br i1 %46, label %.preheader, label %52

.preheader:                                       ; preds = %43, %39
  br label %47

47:                                               ; preds = %.preheader, %48
  %.pn.i = phi ptr [ %.0.i, %48 ], [ %35, %.preheader ]
  %.0.in.i = getelementptr inbounds nuw i8, ptr %.pn.i, i64 8
  %.0.i = load ptr, ptr %.0.in.i, align 8
  %.not32.i = icmp eq ptr %.0.i, null
  br i1 %.not32.i, label %.critedge2.i, label %48

48:                                               ; preds = %47
  %49 = load i32, ptr %.0.i, align 4
  %50 = icmp eq i32 %49, 27
  br i1 %50, label %47, label %.critedge2.i, !llvm.loop !9

.critedge2.i:                                     ; preds = %48, %47
  %51 = tail call zeroext i1 @equal(ptr noundef %.0.i, ptr noundef %.027.lcssa.i) #8
  br i1 %51, label %find_ec_member_matching_expr.exit, label %52

52:                                               ; preds = %.critedge2.i, %43, %.lr.ph57.i
  %indvars.iv.next.i = add nuw nsw i64 %indvars.iv.i, 1
  %53 = load i32, ptr %29, align 4
  %54 = sext i32 %53 to i64
  %55 = icmp slt i64 %indvars.iv.next.i, %54
  br i1 %55, label %.lr.ph57.i, label %find_ec_member_matching_expr.exit.thread

find_ec_member_matching_expr.exit:                ; preds = %.critedge2.i
  %.not33 = icmp eq ptr %35, null
  br i1 %.not33, label %find_ec_member_matching_expr.exit.thread, label %56

56:                                               ; preds = %find_ec_member_matching_expr.exit
  %57 = getelementptr inbounds nuw i8, ptr %35, i64 8
  %58 = load ptr, ptr %57, align 8
  %59 = tail call zeroext i1 @expression_returns_set(ptr noundef %58) #8
  br i1 %59, label %find_ec_member_matching_expr.exit.thread, label %60

60:                                               ; preds = %56
  br i1 %3, label %61, label %.critedge

61:                                               ; preds = %60
  %62 = load ptr, ptr %57, align 8
  %63 = tail call zeroext i1 @is_parallel_safe(ptr noundef %0, ptr noundef %62) #8
  br i1 %63, label %.critedge, label %find_ec_member_matching_expr.exit.thread

find_ec_member_matching_expr.exit.thread:         ; preds = %52, %.lr.ph49.i, %.critedge.i, %find_ec_member_matching_expr.exit, %56, %61
  %indvars.iv.next = add nuw nsw i64 %indvars.iv47, 1
  %64 = load i32, ptr %13, align 4
  %65 = sext i32 %64 to i64
  %66 = icmp slt i64 %indvars.iv.next, %65
  br i1 %66, label %.lr.ph48, label %.critedge36.loopexit

.critedge36.loopexit:                             ; preds = %find_ec_member_matching_expr.exit.thread, %.lr.ph
  %.pre = load ptr, ptr %11, align 8
  br label %.critedge36

.critedge36:                                      ; preds = %.critedge36.loopexit, %8
  %67 = phi ptr [ %.pre, %.critedge36.loopexit ], [ null, %8 ]
  %68 = getelementptr inbounds nuw i8, ptr %1, i64 8
  %69 = load ptr, ptr %68, align 8
  %70 = tail call ptr @find_computable_ec_member(ptr noundef %0, ptr noundef %2, ptr noundef %67, ptr noundef %69, i1 noundef zeroext %3)
  %.not34 = icmp eq ptr %70, null
  br i1 %.not34, label %.critedge, label %71

71:                                               ; preds = %.critedge36
  %72 = getelementptr inbounds nuw i8, ptr %70, i64 8
  %73 = load ptr, ptr %72, align 8
  %74 = tail call zeroext i1 @expression_returns_set(ptr noundef %73) #8
  %not. = xor i1 %74, true
  br label %.critedge

.critedge:                                        ; preds = %60, %61, %71, %.critedge36, %4
  %.0 = phi i1 [ false, %4 ], [ false, %.critedge36 ], [ %not., %71 ], [ true, %61 ], [ true, %60 ]
  ret i1 %.0
}